(iplaton.fit_info
FitInfo
p0
(dp1
S'all_params'
p2
(dp3
S'error_multiple'
p4
(iplaton._params
_UniformParam
p5
(dp6
S'high_guess'
p7
I5
sS'best_guess'
p8
I1
sS'high_lim'
p9
I5
sS'low_guess'
p10
F0.5
sS'low_lim'
p11
F0.5
sbsS'Rp'
p12
(iplaton._params
_UniformParam
p13
(dp14
g7
F132889329.6
sg8
F110741108.0
sg9
F132889329.6
sg10
F88592886.39999999
sg11
F88592886.39999999
sbsS'log_number_density'
p15
(iplaton._params
_Param
p16
(dp17
g7
Nsg8
F-inf
sg10
NsbsS'log_scatt_factor'
p18
(iplaton._params
_UniformParam
p19
(dp20
g7
I10
sg8
I0
sg9
I10
sg10
I-10
sg11
I-10
sbsS'Rs'
p21
(iplaton._params
_Param
p22
(dp23
g7
Nsg8
F871016400.0
sg10
NsbsS'frac_scale_height'
p24
(iplaton._params
_Param
p25
(dp26
g7
Nsg8
I1
sg10
NsbsS'InstNum'
p27
(iplaton._params
_Param
p28
(dp29
g7
Nsg8
Nsg10
NsbsS'logZ'
p30
(iplaton._params
_Param
p31
(dp32
g7
Nsg8
I0
sg10
NsbsS'T_spot'
p33
(iplaton._params
_Param
p34
(dp35
g7
Nsg8
I6300
sg10
NsbsS'CO_ratio'
p36
(iplaton._params
_Param
p37
(dp38
g7
Nsg8
F0.53
sg10
NsbsS'Mp'
p39
(iplaton._params
_Param
p40
(dp41
g7
Nsg8
F9.0733482e+26
sg10
NsbsS'log_cloudtop_P'
p42
(iplaton._params
_UniformParam
p43
(dp44
g7
I1
sg8
I1
sg9
I1
sg10
I-3
sg11
I-3
sbsS'spot_cov_frac'
p45
(iplaton._params
_Param
p46
(dp47
g7
Nsg8
F0.0
sg10
NsbsS'scatt_slope'
p48
(iplaton._params
_UniformParam
p49
(dp50
g7
I10
sg8
I4
sg9
I10
sg10
I-4
sg11
I-4
sbsS'T_star'
p51
(iplaton._params
_Param
p52
(dp53
g7
Nsg8
I6300
sg10
NsbsS'T'
p54
(iplaton._params
_UniformParam
p55
(dp56
g7
F2362.5
sg8
I1575
sg9
F2362.5
sg10
F787.5
sg11
F787.5
sbsS'ri'
p57
(iplaton._params
_Param
p58
(dp59
g7
Nsg8
Nsg10
NsbsS'part_size_std'
p60
(iplaton._params
_Param
p61
(dp62
g7
Nsg8
F0.5
sg10
NsbsS'log_part_size'
p63
(iplaton._params
_Param
p64
(dp65
g7
Nsg8
I-6
sg10
NsbssS'fit_param_names'
p66
(lp67
g12
ag54
ag42
ag18
ag48
ag4
asb.