(iplaton.fit_info
FitInfo
p0
(dp1
S'all_params'
p2
(dp3
S'Rp'
p4
(iplaton._params
_UniformParam
p5
(dp6
S'high_guess'
p7
F118390752.0
sS'best_guess'
p8
F98658959.99999999
sS'high_lim'
p9
F118390752.0
sS'low_guess'
p10
F78927167.99999999
sS'low_lim'
p11
F78927167.99999999
sbsS'log_scatt_factor'
p12
(iplaton._params
_UniformParam
p13
(dp14
g7
I1
sg8
I0
sg9
I1
sg10
I0
sg11
I0
sbsS'Rs'
p15
(iplaton._params
_Param
p16
(dp17
g7
Nsg8
F836927100.0
sg10
NsbsS'T_spot'
p18
(iplaton._params
_Param
p19
(dp20
g7
Nsg8
F6092.0
sg10
NsbsS'CO_ratio'
p21
(iplaton._params
_UniformParam
p22
(dp23
g7
F2.0
sg8
F0.53
sg9
F2.0
sg10
F0.05
sg11
F0.05
sbsS'T_star'
p24
(iplaton._params
_Param
p25
(dp26
g7
Nsg8
F6092.0
sg10
NsbsS'log_part_size'
p27
(iplaton._params
_Param
p28
(dp29
g7
Nsg8
I-6
sg10
NsbsS'Offset1_Wavs'
p30
(iplaton._params
_Param
p31
(dp32
g7
Nsg8
(lp33
F3e-07
aF1.09e-06
asg10
NsbsS'logZ'
p34
(iplaton._params
_UniformParam
p35
(dp36
g7
I3
sg8
I0
sg9
I3
sg10
I-1
sg11
I-1
sbsS'Offset2_Wavs'
p37
(iplaton._params
_Param
p38
(dp39
g7
Nsg8
(lp40
F1.1e-06
aF1.7e-06
asg10
NsbsS'scatt_slope'
p41
(iplaton._params
_Param
p42
(dp43
g7
Nsg8
I4
sg10
NsbsS'spot_cov_frac'
p44
(iplaton._params
_Param
p45
(dp46
g7
Nsg8
F0.0
sg10
NsbsS'ri'
p47
(iplaton._params
_Param
p48
(dp49
g7
Nsg8
Nsg10
NsbsS'Offset3_Wavs'
p50
(iplaton._params
_Param
p51
(dp52
g7
Nsg8
(lp53
F3e-06
aF6.7e-06
asg10
NsbsS'Mp'
p54
(iplaton._params
_Param
p55
(dp56
g7
Nsg8
F1.3097511e+27
sg10
NsbsS'log_cloudtop_P'
p57
(iplaton._params
_UniformParam
p58
(dp59
g7
I3
sg8
I1
sg9
I3
sg10
I-3
sg11
I-3
sbsS'part_size_std'
p60
(iplaton._params
_Param
p61
(dp62
g7
Nsg8
F0.5
sg10
NsbsS'error_multiple'
p63
(iplaton._params
_UniformParam
p64
(dp65
g7
I5
sg8
I1
sg9
I5
sg10
F0.5
sg11
F0.5
sbsS'Offset1'
p66
(iplaton._params
_UniformParam
p67
(dp68
g7
cnumpy.core.multiarray
scalar
p69
(cnumpy
dtype
p70
(S'f8'
p71
I0
I1
tp72
Rp73
(I3
S'<'
p74
NNNI-1
I-1
I0
tp75
bS'qY\xb8\xd42\x00\x7f?'
p76
tp77
Rp78
sg8
F0.0001
sg9
g78
sg10
g69
(g73
S'qY\xb8\xd42\x00\x7f\xbf'
p79
tp80
Rp81
sg11
g81
sbsS'Offset2'
p82
(iplaton._params
_Param
p83
(dp84
g7
Nsg8
I0
sg10
NsbsS'InstNum'
p85
(iplaton._params
_Param
p86
(dp87
g7
Nsg8
I3
sg10
NsbsS'frac_scale_height'
p88
(iplaton._params
_Param
p89
(dp90
g7
Nsg8
I1
sg10
NsbsS'Offset3'
p91
(iplaton._params
_Param
p92
(dp93
g7
Nsg8
I0
sg10
NsbsS'log_number_density'
p94
(iplaton._params
_Param
p95
(dp96
g7
Nsg8
F-inf
sg10
NsbsS'T'
p97
(iplaton._params
_UniformParam
p98
(dp99
g7
F1800.0
sg8
F1200.0
sg9
F1800.0
sg10
F600.0
sg11
F600.0
sbssS'fit_param_names'
p100
(lp101
g4
ag97
ag34
ag21
ag57
ag12
ag63
ag66
asb.